; Function Attrs: mustprogress nounwind willreturn uwtable
define void @Mop_ManStop(ptr noundef captures(none) %0) local_unnamed_addr #3 {
  %2 = getelementptr inbounds nuw i8, ptr %0, i64 16
  %3 = load ptr, ptr %2, align 8, !tbaa !19
  %4 = getelementptr inbounds nuw i8, ptr %3, i64 8
  %5 = load ptr, ptr %4, align 8, !tbaa !17
  %.not.i = icmp eq ptr %5, null
  br i1 %.not.i, label %Vec_WrdFree.exit, label %6

6:                                                ; preds = %1
  tail call void @free(ptr noundef nonnull %5) #23
  br label %Vec_WrdFree.exit

Vec_WrdFree.exit:                                 ; preds = %1, %6
  tail call void @free(ptr noundef nonnull %3) #23
  %7 = getelementptr inbounds nuw i8, ptr %0, i64 24
  %8 = load ptr, ptr %7, align 8, !tbaa !20
  %9 = getelementptr inbounds nuw i8, ptr %8, i64 8
  %10 = load ptr, ptr %9, align 8, !tbaa !17
  %.not.i6 = icmp eq ptr %10, null
  br i1 %.not.i6, label %Vec_WrdFree.exit7, label %11

11:                                               ; preds = %Vec_WrdFree.exit
  tail call void @free(ptr noundef nonnull %10) #23
  br label %Vec_WrdFree.exit7

Vec_WrdFree.exit7:                                ; preds = %Vec_WrdFree.exit, %11
  tail call void @free(ptr noundef nonnull %8) #23
  %12 = getelementptr inbounds nuw i8, ptr %0, i64 32
  %13 = load ptr, ptr %12, align 8, !tbaa !26
  %14 = getelementptr inbounds nuw i8, ptr %13, i64 8
  %15 = load ptr, ptr %14, align 8, !tbaa !25
  %.not.i8 = icmp eq ptr %15, null
  br i1 %.not.i8, label %Vec_IntFree.exit, label %16

16:                                               ; preds = %Vec_WrdFree.exit7
  tail call void @free(ptr noundef nonnull %15) #23
  br label %Vec_IntFree.exit

Vec_IntFree.exit:                                 ; preds = %Vec_WrdFree.exit7, %16
  tail call void @free(ptr noundef nonnull %13) #23
  %17 = getelementptr inbounds nuw i8, ptr %0, i64 40
  %18 = load ptr, ptr %17, align 8, !tbaa !27
  %19 = getelementptr inbounds nuw i8, ptr %18, i64 8
  %20 = load ptr, ptr %19, align 8, !tbaa !25
  %.not.i9 = icmp eq ptr %20, null
  br i1 %.not.i9, label %22, label %21

21:                                               ; preds = %Vec_IntFree.exit
  tail call void @free(ptr noundef nonnull %20) #23
  br label %22

22:                                               ; preds = %Vec_IntFree.exit, %21
  tail call void @free(ptr noundef nonnull %18) #23
  tail call void @free(ptr noundef nonnull %0) #23
  ret void
}